; Function Attrs: nounwind uwtable
define hidden ptr @X11_GLES_CreateContext(ptr noundef %0, ptr noundef readonly captures(none) %1) local_unnamed_addr #0 {
  %3 = getelementptr inbounds nuw i8, ptr %1, i64 392
  %4 = load ptr, ptr %3, align 8
  %5 = getelementptr inbounds nuw i8, ptr %4, i64 336
  %6 = load ptr, ptr %5, align 8
  %7 = load ptr, ptr %6, align 8
  %8 = load ptr, ptr @X11_XSync, align 8
  %9 = tail call i32 %8(ptr noundef %7, i32 noundef 0) #4
  %10 = getelementptr inbounds nuw i8, ptr %4, i64 384
  %11 = load ptr, ptr %10, align 8
  %12 = tail call ptr @SDL_EGL_CreateContext(ptr noundef %0, ptr noundef %11) #4
  %13 = load ptr, ptr @X11_XSync, align 8
  %14 = tail call i32 %13(ptr noundef %7, i32 noundef 0) #4
  ret ptr %12
}